target datalayout = "e-m:e-p270:32:32-p271:32:32-p272:64:64-i64:64-i128:128-f80:128-n8:16:32:64-S128"
target triple = "x86_64-pc-linux-gnu"

%struct._cairo_rectangle_int = type { i32, i32, i32, i32 }
%struct.darktable_t = type { %struct.dt_codepath_t, i32, i32, ptr, ptr, ptr, ptr, ptr, ptr, ptr, ptr, ptr, ptr, ptr, ptr, ptr, ptr, ptr, ptr, ptr, ptr, ptr, ptr, ptr, ptr, ptr, ptr, ptr, ptr, ptr, [64 x %struct.dt_pthread_mutex_t], %struct.dt_pthread_mutex_t, %struct.dt_pthread_mutex_t, %struct.dt_pthread_mutex_t, %struct.dt_pthread_mutex_t, %struct.dt_pthread_mutex_t, ptr, ptr, ptr, ptr, ptr, ptr, ptr, ptr, ptr, ptr, ptr, ptr, ptr, %struct.dt_lua_state_t, ptr, double, ptr, i32, [47 x i32], i32, i32, ptr, ptr, %struct.dt_sys_resources_t, %struct.dt_backthumb_t, %struct.dt_gimp_t }
%struct.dt_codepath_t = type { i8, [3 x i8] }
%struct.dt_pthread_mutex_t = type { %union.pthread_mutex_t }
%union.pthread_mutex_t = type { %struct.__pthread_mutex_s }
%struct.__pthread_mutex_s = type { i32, i32, i32, i32, i32, i16, i16, %struct.__pthread_internal_list }
%struct.__pthread_internal_list = type { ptr, ptr }
%struct.dt_lua_state_t = type { i32 }
%struct.dt_sys_resources_t = type { i64, i64, ptr, ptr, i32 }
%struct.dt_backthumb_t = type { double, double, i32, i32, i32, i32 }
%struct.dt_gimp_t = type { i32, ptr, ptr, i32, i32 }
%struct.dt_gui_gtk_t = type { ptr, %struct.dt_gui_widgets_t, %struct.dt_gui_scrollbars_t, i32, ptr, i32, [39 x %struct._GdkRGBA], i32, i32, i32, i32, i32, double, double, double, double, ptr, double, double, double, double, i32, i32, [4096 x i8], i32, i32, i32, %struct.dt_pthread_mutex_t }
%struct.dt_gui_widgets_t = type { ptr, ptr, ptr, ptr, i32, i32, i32 }
%struct.dt_gui_scrollbars_t = type { ptr, ptr, i32 }
%struct._GdkRGBA = type { double, double, double, double }

@.str.12 = private unnamed_addr constant [17 x i8] c"module_drag_icon\00", align 1
@darktable = external global %struct.darktable_t, align 8

; Function Attrs: inlinehint nounwind uwtable
define internal ptr @dt_cairo_image_surface_create(i32 noundef %0, i32 noundef %1, i32 noundef %2) #4 {
  %4 = alloca i32, align 4
  %5 = alloca i32, align 4
  %6 = alloca i32, align 4
  %7 = alloca ptr, align 8
  store i32 %0, ptr %4, align 4, !tbaa !13
  store i32 %1, ptr %5, align 4, !tbaa !13
  store i32 %2, ptr %6, align 4, !tbaa !13
  call void @llvm.lifetime.start.p0(i64 8, ptr %7) #10
  %8 = load i32, ptr %4, align 4, !tbaa !13
  %9 = load i32, ptr %5, align 4, !tbaa !13
  %10 = sitofp i32 %9 to double
  %11 = load ptr, ptr getelementptr inbounds nuw (%struct.darktable_t, ptr @darktable, i32 0, i32 14), align 8, !tbaa !108
  %12 = getelementptr inbounds nuw %struct.dt_gui_gtk_t, ptr %11, i32 0, i32 19
  %13 = load double, ptr %12, align 8, !tbaa !109
  %14 = fmul reassoc nsz arcp contract afn double %10, %13
  %15 = fptosi double %14 to i32
  %16 = load i32, ptr %6, align 4, !tbaa !13
  %17 = sitofp i32 %16 to double
  %18 = load ptr, ptr getelementptr inbounds nuw (%struct.darktable_t, ptr @darktable, i32 0, i32 14), align 8, !tbaa !108
  %19 = getelementptr inbounds nuw %struct.dt_gui_gtk_t, ptr %18, i32 0, i32 19
  %20 = load double, ptr %19, align 8, !tbaa !109
  %21 = fmul reassoc nsz arcp contract afn double %17, %20
  %22 = fptosi double %21 to i32
  %23 = call ptr @cairo_image_surface_create(i32 noundef %8, i32 noundef %15, i32 noundef %22)
  store ptr %23, ptr %7, align 8, !tbaa !48
  %24 = load ptr, ptr %7, align 8, !tbaa !48
  %25 = load ptr, ptr getelementptr inbounds nuw (%struct.darktable_t, ptr @darktable, i32 0, i32 14), align 8, !tbaa !108
  %26 = getelementptr inbounds nuw %struct.dt_gui_gtk_t, ptr %25, i32 0, i32 19
  %27 = load double, ptr %26, align 8, !tbaa !109
  %28 = load ptr, ptr getelementptr inbounds nuw (%struct.darktable_t, ptr @darktable, i32 0, i32 14), align 8, !tbaa !108
  %29 = getelementptr inbounds nuw %struct.dt_gui_gtk_t, ptr %28, i32 0, i32 19
  %30 = load double, ptr %29, align 8, !tbaa !109
  call void @cairo_surface_set_device_scale(ptr noundef %24, double noundef %27, double noundef %30)
  %31 = load ptr, ptr %7, align 8, !tbaa !48
  call void @llvm.lifetime.end.p0(i64 8, ptr %7) #10
  ret ptr %31
}

; Function Attrs: nounwind uwtable
define internal void @_expander_drag_begin(ptr noundef %0, ptr noundef %1, ptr noundef %2) #0 {
  %4 = alloca ptr, align 8
  %5 = alloca ptr, align 8
  %6 = alloca ptr, align 8
  %7 = alloca %struct._cairo_rectangle_int, align 4
  %8 = alloca ptr, align 8
  %9 = alloca ptr, align 8
  %10 = alloca i32, align 4
  %11 = alloca i32, align 4
  store ptr %0, ptr %4, align 8, !tbaa !41
  store ptr %1, ptr %5, align 8, !tbaa !44
  store ptr %2, ptr %6, align 8, !tbaa !30
  call void @llvm.lifetime.start.p0(i64 16, ptr %7) #10
  call void @llvm.memset.p0.i64(ptr align 4 %7, i8 0, i64 16, i1 false)
  %12 = load ptr, ptr %4, align 8, !tbaa !41
  call void @gtk_widget_get_allocation(ptr noundef %12, ptr noundef %7)
  call void @llvm.lifetime.start.p0(i64 8, ptr %8) #10
  %13 = getelementptr inbounds nuw %struct._cairo_rectangle_int, ptr %7, i32 0, i32 2
  %14 = load i32, ptr %13, align 4, !tbaa !46
  %15 = getelementptr inbounds nuw %struct._cairo_rectangle_int, ptr %7, i32 0, i32 3
  %16 = load i32, ptr %15, align 4, !tbaa !47
  %17 = call ptr @dt_cairo_image_surface_create(i32 noundef 1, i32 noundef %14, i32 noundef %16)
  store ptr %17, ptr %8, align 8, !tbaa !48
  call void @llvm.lifetime.start.p0(i64 8, ptr %9) #10
  %18 = load ptr, ptr %8, align 8, !tbaa !48
  %19 = call ptr @cairo_create(ptr noundef %18)
  store ptr %19, ptr %9, align 8, !tbaa !50
  %20 = load ptr, ptr %4, align 8, !tbaa !41
  call void @dt_gui_add_class(ptr noundef %20, ptr noundef @.str.12)
  %21 = load ptr, ptr %4, align 8, !tbaa !41
  call void @gtk_widget_size_allocate(ptr noundef %21, ptr noundef %7)
  %22 = load ptr, ptr %4, align 8, !tbaa !41
  %23 = load ptr, ptr %9, align 8, !tbaa !50
  call void @gtk_widget_draw(ptr noundef %22, ptr noundef %23)
  %24 = load ptr, ptr %4, align 8, !tbaa !41
  call void @dt_gui_remove_class(ptr noundef %24, ptr noundef @.str.12)
  call void @llvm.lifetime.start.p0(i64 4, ptr %10) #10
  call void @llvm.lifetime.start.p0(i64 4, ptr %11) #10
  %25 = load ptr, ptr %4, align 8, !tbaa !41
  %26 = call ptr @gtk_widget_get_window(ptr noundef %25)
  %27 = load ptr, ptr %4, align 8, !tbaa !41
  %28 = call ptr @gtk_widget_get_display(ptr noundef %27)
  %29 = call ptr @gdk_display_get_default_seat(ptr noundef %28)
  %30 = call ptr @gdk_seat_get_pointer(ptr noundef %29)
  %31 = call ptr @gdk_window_get_device_position(ptr noundef %26, ptr noundef %30, ptr noundef %10, ptr noundef %11, ptr noundef null)
  %32 = load ptr, ptr %8, align 8, !tbaa !48
  %33 = load i32, ptr %10, align 4, !tbaa !13
  %34 = sub nsw i32 0, %33
  %35 = sitofp i32 %34 to double
  %36 = load i32, ptr %11, align 4, !tbaa !13
  %37 = getelementptr inbounds nuw %struct._cairo_rectangle_int, ptr %7, i32 0, i32 3
  %38 = load i32, ptr %37, align 4, !tbaa !47
  %39 = icmp sgt i32 %36, %38
  br i1 %39, label %40, label %43

40:                                               ; preds = %3
  %41 = getelementptr inbounds nuw %struct._cairo_rectangle_int, ptr %7, i32 0, i32 3
  %42 = load i32, ptr %41, align 4, !tbaa !47
  br label %51

43:                                               ; preds = %3
  %44 = load i32, ptr %11, align 4, !tbaa !13
  %45 = icmp slt i32 %44, 0
  br i1 %45, label %46, label %47

46:                                               ; preds = %43
  br label %49

47:                                               ; preds = %43
  %48 = load i32, ptr %11, align 4, !tbaa !13
  br label %49

49:                                               ; preds = %47, %46
  %50 = phi i32 [ 0, %46 ], [ %48, %47 ]
  br label %51

51:                                               ; preds = %49, %40
  %52 = phi i32 [ %42, %40 ], [ %50, %49 ]
  %53 = sub nsw i32 0, %52
  %54 = sitofp i32 %53 to double
  call void @cairo_surface_set_device_offset(ptr noundef %32, double noundef %35, double noundef %54)
  %55 = load ptr, ptr %5, align 8, !tbaa !44
  %56 = load ptr, ptr %8, align 8, !tbaa !48
  call void @gtk_drag_set_icon_surface(ptr noundef %55, ptr noundef %56)
  %57 = load ptr, ptr %9, align 8, !tbaa !50
  call void @cairo_destroy(ptr noundef %57)
  %58 = load ptr, ptr %8, align 8, !tbaa !48
  call void @cairo_surface_destroy(ptr noundef %58)
  %59 = load ptr, ptr %4, align 8, !tbaa !41
  call void @gtk_widget_set_opacity(ptr noundef %59, double noundef 5.000000e-01)
  call void @llvm.lifetime.end.p0(i64 4, ptr %11) #10
  call void @llvm.lifetime.end.p0(i64 4, ptr %10) #10
  call void @llvm.lifetime.end.p0(i64 8, ptr %9) #10
  call void @llvm.lifetime.end.p0(i64 8, ptr %8) #10
  call void @llvm.lifetime.end.p0(i64 16, ptr %7) #10
  ret void
}