; Function Attrs: nounwind uwtable
define internal void @_expander_drag_begin(ptr noundef %0, ptr noundef %1, ptr readnone captures(none) %2) #0 {
  %4 = alloca %struct._cairo_rectangle_int, align 4
  %5 = alloca i32, align 4
  %6 = alloca i32, align 4
  call void @llvm.lifetime.start.p0(i64 16, ptr nonnull %4) #10
  call void @llvm.memset.p0.i64(ptr noundef nonnull align 4 dereferenceable(16) %4, i8 0, i64 16, i1 false)
  call void @gtk_widget_get_allocation(ptr noundef %0, ptr noundef nonnull %4) #10
  %7 = getelementptr inbounds nuw i8, ptr %4, i64 8
  %8 = load i32, ptr %7, align 4, !tbaa !39
  %9 = getelementptr inbounds nuw i8, ptr %4, i64 12
  %10 = load i32, ptr %9, align 4, !tbaa !40
  %11 = sitofp i32 %8 to double
  %12 = load ptr, ptr getelementptr inbounds nuw (i8, ptr @darktable, i64 104), align 8, !tbaa !41
  %13 = getelementptr inbounds nuw i8, ptr %12, i64 1432
  %14 = load double, ptr %13, align 8, !tbaa !78
  %15 = fmul reassoc nsz arcp contract afn double %14, %11
  %16 = fptosi double %15 to i32
  %17 = sitofp i32 %10 to double
  %18 = fmul reassoc nsz arcp contract afn double %14, %17
  %19 = fptosi double %18 to i32
  %20 = call ptr @cairo_image_surface_create(i32 noundef 1, i32 noundef %16, i32 noundef %19) #10
  %21 = load ptr, ptr getelementptr inbounds nuw (i8, ptr @darktable, i64 104), align 8, !tbaa !41
  %22 = getelementptr inbounds nuw i8, ptr %21, i64 1432
  %23 = load double, ptr %22, align 8, !tbaa !78
  call void @cairo_surface_set_device_scale(ptr noundef %20, double noundef %23, double noundef %23) #10
  %24 = call ptr @cairo_create(ptr noundef %20) #10
  call void @dt_gui_add_class(ptr noundef %0, ptr noundef nonnull @.str.12) #10
  call void @gtk_widget_size_allocate(ptr noundef %0, ptr noundef nonnull %4) #10
  call void @gtk_widget_draw(ptr noundef %0, ptr noundef %24) #10
  call void @dt_gui_remove_class(ptr noundef %0, ptr noundef nonnull @.str.12) #10
  call void @llvm.lifetime.start.p0(i64 4, ptr nonnull %5) #10
  call void @llvm.lifetime.start.p0(i64 4, ptr nonnull %6) #10
  %25 = call ptr @gtk_widget_get_window(ptr noundef %0) #10
  %26 = call ptr @gtk_widget_get_display(ptr noundef %0) #10
  %27 = call ptr @gdk_display_get_default_seat(ptr noundef %26) #10
  %28 = call ptr @gdk_seat_get_pointer(ptr noundef %27) #10
  %29 = call ptr @gdk_window_get_device_position(ptr noundef %25, ptr noundef %28, ptr noundef nonnull %5, ptr noundef nonnull %6, ptr noundef null) #10
  %30 = load i32, ptr %5, align 4, !tbaa !37
  %31 = load i32, ptr %6, align 4, !tbaa !37
  %32 = load i32, ptr %9, align 4, !tbaa !40
  %33 = icmp sgt i32 %31, %32
  %34 = call i32 @llvm.smax.i32(i32 %31, i32 0)
  %35 = select i1 %33, i32 %32, i32 %34
  %36 = sub nsw i32 0, %30
  %37 = sitofp i32 %36 to double
  %38 = sub nsw i32 0, %35
  %39 = sitofp i32 %38 to double
  call void @cairo_surface_set_device_offset(ptr noundef %20, double noundef %37, double noundef %39) #10
  call void @gtk_drag_set_icon_surface(ptr noundef %1, ptr noundef %20) #10
  call void @cairo_destroy(ptr noundef %24) #10
  call void @cairo_surface_destroy(ptr noundef %20) #10
  call void @gtk_widget_set_opacity(ptr noundef %0, double noundef 5.000000e-01) #10
  call void @llvm.lifetime.end.p0(i64 4, ptr nonnull %6) #10
  call void @llvm.lifetime.end.p0(i64 4, ptr nonnull %5) #10
  call void @llvm.lifetime.end.p0(i64 16, ptr nonnull %4) #10
  ret void
}